target datalayout = "e-m:e-p270:32:32-p271:32:32-p272:64:64-i64:64-i128:128-f80:128-n8:16:32:64-S128"
target triple = "x86_64-pc-linux-gnu"

%"class.std::vector.0" = type { %"struct.std::_Vector_base.1" }
%"struct.std::_Vector_base.1" = type { %"struct.std::_Vector_base<int, std::allocator<int>>::_Vector_impl" }
%"struct.std::_Vector_base<int, std::allocator<int>>::_Vector_impl" = type { %"struct.std::_Vector_base<int, std::allocator<int>>::_Vector_impl_data" }
%"struct.std::_Vector_base<int, std::allocator<int>>::_Vector_impl_data" = type { ptr, ptr, ptr }
%"class.std::shared_ptr" = type { %"class.std::__shared_ptr" }
%"class.std::__shared_ptr" = type { ptr, %"class.std::__shared_count" }
%"class.std::__shared_count" = type { ptr }
%"class.open_spiel::State" = type <{ ptr, %"class.std::shared_ptr", i32, i32, %"class.std::vector.18", i32, [4 x i8] }>
%"class.std::vector.18" = type { %"struct.std::_Vector_base.19" }
%"struct.std::_Vector_base.19" = type { %"struct.std::_Vector_base<open_spiel::State::PlayerAction, std::allocator<open_spiel::State::PlayerAction>>::_Vector_impl" }
%"struct.std::_Vector_base<open_spiel::State::PlayerAction, std::allocator<open_spiel::State::PlayerAction>>::_Vector_impl" = type { %"struct.std::_Vector_base<open_spiel::State::PlayerAction, std::allocator<open_spiel::State::PlayerAction>>::_Vector_impl_data" }
%"struct.std::_Vector_base<open_spiel::State::PlayerAction, std::allocator<open_spiel::State::PlayerAction>>::_Vector_impl_data" = type { ptr, ptr, ptr }
%"class.open_spiel::maedn::MaednState" = type { %"class.open_spiel::State.base", i32, i32, i8, i32, i32, i32, %"class.std::vector.0", %"class.std::vector.0", %"class.std::vector.23" }
%"class.open_spiel::State.base" = type <{ ptr, %"class.std::shared_ptr", i32, i32, %"class.std::vector.18", i32 }>
%"class.std::vector.23" = type { %"struct.std::_Vector_base.24" }
%"struct.std::_Vector_base.24" = type { %"struct.std::_Vector_base<open_spiel::maedn::TurnHistoryInfo, std::allocator<open_spiel::maedn::TurnHistoryInfo>>::_Vector_impl" }
%"struct.std::_Vector_base<open_spiel::maedn::TurnHistoryInfo, std::allocator<open_spiel::maedn::TurnHistoryInfo>>::_Vector_impl" = type { %"struct.std::_Vector_base<open_spiel::maedn::TurnHistoryInfo, std::allocator<open_spiel::maedn::TurnHistoryInfo>>::_Vector_impl_data" }
%"struct.std::_Vector_base<open_spiel::maedn::TurnHistoryInfo, std::allocator<open_spiel::maedn::TurnHistoryInfo>>::_Vector_impl_data" = type { ptr, ptr, ptr }

; Function Attrs: mustprogress nounwind uwtable
define linkonce_odr noundef nonnull align 4 dereferenceable(4) ptr @_ZNKSt6vectorIiSaIiEEixEm(ptr noundef nonnull align 8 dereferenceable(24) %0, i64 noundef %1) #4 comdat align 2 {
  %3 = alloca ptr, align 8
  %4 = alloca i64, align 8
  store ptr %0, ptr %3, align 8
  store i64 %1, ptr %4, align 8
  %5 = load ptr, ptr %3, align 8
  %6 = getelementptr inbounds nuw %"struct.std::_Vector_base.1", ptr %5, i32 0, i32 0
  %7 = getelementptr inbounds nuw %"struct.std::_Vector_base<int, std::allocator<int>>::_Vector_impl_data", ptr %6, i32 0, i32 0
  %8 = load ptr, ptr %7, align 8
  %9 = load i64, ptr %4, align 8
  %10 = getelementptr inbounds i32, ptr %8, i64 %9
  ret ptr %10
}

; Function Attrs: mustprogress nounwind uwtable
define linkonce_odr noundef i32 @_ZNK10open_spiel5maedn10MaednState16PlayerToPositionEi(ptr noundef nonnull align 8 dereferenceable(160) %0, i32 noundef %1) #4 comdat align 2 {
  %3 = alloca ptr, align 8
  %4 = alloca i32, align 4
  store ptr %0, ptr %3, align 8
  store i32 %1, ptr %4, align 4
  %5 = load ptr, ptr %3, align 8
  %6 = getelementptr inbounds nuw %"class.open_spiel::State", ptr %5, i32 0, i32 3
  %7 = load i32, ptr %6, align 4
  %8 = icmp eq i32 %7, 2
  br i1 %8, label %9, label %22

9:                                                ; preds = %2
  %10 = getelementptr inbounds nuw %"class.open_spiel::maedn::MaednState", ptr %5, i32 0, i32 3
  %11 = load i8, ptr %10, align 4
  %12 = trunc i8 %11 to i1
  br i1 %12, label %13, label %22

13:                                               ; preds = %9
  %14 = load i32, ptr %4, align 4
  %15 = icmp eq i32 %14, 1
  br i1 %15, label %19, label %16

16:                                               ; preds = %13
  %17 = load i32, ptr %4, align 4
  %18 = icmp eq i32 %17, 2
  br i1 %18, label %19, label %22

19:                                               ; preds = %16, %13
  %20 = load i32, ptr %4, align 4
  %21 = sub nsw i32 3, %20
  br label %24

22:                                               ; preds = %16, %9, %2
  %23 = load i32, ptr %4, align 4
  br label %24

24:                                               ; preds = %22, %19
  %25 = phi i32 [ %21, %19 ], [ %23, %22 ]
  ret i32 %25
}

; Function Attrs: mustprogress uwtable
define noundef zeroext i1 @_ZNK10open_spiel5maedn10MaednState9AllInGoalEi(ptr noundef nonnull align 8 dereferenceable(160) %0, i32 noundef %1) #5 align 2 {
  %3 = alloca ptr, align 8
  %4 = alloca i32, align 4
  %5 = alloca i32, align 4
  %6 = alloca i32, align 4
  store ptr %0, ptr %3, align 8
  store i32 %1, ptr %4, align 4
  %7 = load ptr, ptr %3, align 8
  %8 = load i32, ptr %4, align 4
  %9 = call noundef i32 @_ZNK10open_spiel5maedn10MaednState16PlayerToPositionEi(ptr noundef nonnull align 8 dereferenceable(160) %7, i32 noundef %8)
  store i32 %9, ptr %5, align 4
  %10 = load i32, ptr %5, align 4
  %11 = mul nsw i32 %10, 4
  %12 = add nsw i32 40, %11
  store i32 %12, ptr %6, align 4
  %13 = getelementptr inbounds nuw %"class.open_spiel::maedn::MaednState", ptr %7, i32 0, i32 8
  %14 = load i32, ptr %6, align 4
  %15 = sext i32 %14 to i64
  %16 = call noundef nonnull align 4 dereferenceable(4) ptr @_ZNKSt6vectorIiSaIiEEixEm(ptr noundef nonnull align 8 dereferenceable(24) %13, i64 noundef %15) #3
  %17 = load i32, ptr %16, align 4
  %18 = icmp ne i32 %17, 0
  br i1 %18, label %19, label %43

19:                                               ; preds = %2
  %20 = getelementptr inbounds nuw %"class.open_spiel::maedn::MaednState", ptr %7, i32 0, i32 8
  %21 = load i32, ptr %6, align 4
  %22 = add nsw i32 %21, 1
  %23 = sext i32 %22 to i64
  %24 = call noundef nonnull align 4 dereferenceable(4) ptr @_ZNKSt6vectorIiSaIiEEixEm(ptr noundef nonnull align 8 dereferenceable(24) %20, i64 noundef %23) #3
  %25 = load i32, ptr %24, align 4
  %26 = icmp ne i32 %25, 0
  br i1 %26, label %27, label %43

27:                                               ; preds = %19
  %28 = getelementptr inbounds nuw %"class.open_spiel::maedn::MaednState", ptr %7, i32 0, i32 8
  %29 = load i32, ptr %6, align 4
  %30 = add nsw i32 %29, 2
  %31 = sext i32 %30 to i64
  %32 = call noundef nonnull align 4 dereferenceable(4) ptr @_ZNKSt6vectorIiSaIiEEixEm(ptr noundef nonnull align 8 dereferenceable(24) %28, i64 noundef %31) #3
  %33 = load i32, ptr %32, align 4
  %34 = icmp ne i32 %33, 0
  br i1 %34, label %35, label %43

35:                                               ; preds = %27
  %36 = getelementptr inbounds nuw %"class.open_spiel::maedn::MaednState", ptr %7, i32 0, i32 8
  %37 = load i32, ptr %6, align 4
  %38 = add nsw i32 %37, 3
  %39 = sext i32 %38 to i64
  %40 = call noundef nonnull align 4 dereferenceable(4) ptr @_ZNKSt6vectorIiSaIiEEixEm(ptr noundef nonnull align 8 dereferenceable(24) %36, i64 noundef %39) #3
  %41 = load i32, ptr %40, align 4
  %42 = icmp ne i32 %41, 0
  br label %43

43:                                               ; preds = %35, %27, %19, %2
  %44 = phi i1 [ false, %27 ], [ false, %19 ], [ false, %2 ], [ %42, %35 ]
  ret i1 %44
}

; Function Attrs: mustprogress uwtable
define noundef zeroext i1 @_ZNK10open_spiel5maedn10MaednState10IsTerminalEv(ptr noundef nonnull align 8 dereferenceable(160) %0) unnamed_addr #5 align 2 {
  %2 = alloca i1, align 1
  %3 = alloca ptr, align 8
  %4 = alloca i32, align 4
  store ptr %0, ptr %3, align 8
  %5 = load ptr, ptr %3, align 8
  store i32 0, ptr %4, align 4
  br label %6

6:                                                ; preds = %16, %1
  %7 = load i32, ptr %4, align 4
  %8 = getelementptr inbounds nuw %"class.open_spiel::State", ptr %5, i32 0, i32 3
  %9 = load i32, ptr %8, align 4
  %10 = icmp slt i32 %7, %9
  br i1 %10, label %11, label %19

11:                                               ; preds = %6
  %12 = load i32, ptr %4, align 4
  %13 = call noundef zeroext i1 @_ZNK10open_spiel5maedn10MaednState9AllInGoalEi(ptr noundef nonnull align 8 dereferenceable(160) %5, i32 noundef %12)
  br i1 %13, label %14, label %15

14:                                               ; preds = %11
  store i1 true, ptr %2, align 1
  br label %20

15:                                               ; preds = %11
  br label %16

16:                                               ; preds = %15
  %17 = load i32, ptr %4, align 4
  %18 = add nsw i32 %17, 1
  store i32 %18, ptr %4, align 4
  br label %6, !llvm.loop !21

19:                                               ; preds = %6
  store i1 false, ptr %2, align 1
  br label %20

20:                                               ; preds = %19, %14
  %21 = load i1, ptr %2, align 1
  ret i1 %21
}