; Function Attrs: mustprogress nofree norecurse nosync nounwind willreturn memory(read, inaccessiblemem: none) uwtable
define noundef zeroext i1 @_ZNK10open_spiel5maedn10MaednState10IsTerminalEv(ptr noundef nonnull readonly align 8 captures(none) dereferenceable(160) %0) unnamed_addr #10 align 2 {
  %2 = getelementptr inbounds nuw i8, ptr %0, i64 28
  %3 = load i32, ptr %2, align 4
  %4 = icmp sgt i32 %3, 0
  br i1 %4, label %.lr.ph, label %._crit_edge

.lr.ph:                                           ; preds = %1
  %5 = icmp eq i32 %3, 2
  %6 = getelementptr inbounds nuw i8, ptr %0, i64 112
  %7 = load ptr, ptr %6, align 8
  br i1 %5, label %.lr.ph.split.us, label %_ZNK10open_spiel5maedn10MaednState16PlayerToPositionEi.exit.i.preheader

_ZNK10open_spiel5maedn10MaednState16PlayerToPositionEi.exit.i.preheader: ; preds = %.lr.ph
  %wide.trip.count = zext nneg i32 %3 to i64
  br label %_ZNK10open_spiel5maedn10MaednState16PlayerToPositionEi.exit.i

.lr.ph.split.us:                                  ; preds = %.lr.ph
  %8 = getelementptr inbounds nuw i8, ptr %0, i64 68
  %9 = load i8, ptr %8, align 4
  %.fr10 = freeze i8 %9
  %10 = trunc i8 %.fr10 to i1
  br i1 %10, label %_ZNK10open_spiel5maedn10MaednState16PlayerToPositionEi.exit.i.us, label %_ZNK10open_spiel5maedn10MaednState16PlayerToPositionEi.exit.i.us.us

_ZNK10open_spiel5maedn10MaednState16PlayerToPositionEi.exit.i.us.us: ; preds = %.lr.ph.split.us, %_ZNK10open_spiel5maedn10MaednState9AllInGoalEi.exit.thread.us.us
  %indvars.iv16 = phi i64 [ %indvars.iv.next17, %_ZNK10open_spiel5maedn10MaednState9AllInGoalEi.exit.thread.us.us ], [ 0, %.lr.ph.split.us ]
  %.idx22 = shl i64 %indvars.iv16, 4
  %11 = getelementptr i8, ptr %7, i64 %.idx22
  %12 = getelementptr i8, ptr %11, i64 160
  %13 = load i32, ptr %12, align 4
  %.not.i.us.us = icmp eq i32 %13, 0
  br i1 %.not.i.us.us, label %_ZNK10open_spiel5maedn10MaednState9AllInGoalEi.exit.thread.us.us, label %14

14:                                               ; preds = %_ZNK10open_spiel5maedn10MaednState16PlayerToPositionEi.exit.i.us.us
  %15 = getelementptr i8, ptr %11, i64 164
  %16 = load i32, ptr %15, align 4
  %.not6.i.us.us = icmp eq i32 %16, 0
  br i1 %.not6.i.us.us, label %_ZNK10open_spiel5maedn10MaednState9AllInGoalEi.exit.thread.us.us, label %17

17:                                               ; preds = %14
  %18 = getelementptr i8, ptr %11, i64 168
  %19 = load i32, ptr %18, align 4
  %.not7.i.us.us = icmp eq i32 %19, 0
  br i1 %.not7.i.us.us, label %_ZNK10open_spiel5maedn10MaednState9AllInGoalEi.exit.thread.us.us, label %_ZNK10open_spiel5maedn10MaednState9AllInGoalEi.exit.us.us

_ZNK10open_spiel5maedn10MaednState9AllInGoalEi.exit.us.us: ; preds = %17
  %20 = getelementptr i8, ptr %11, i64 172
  %21 = load i32, ptr %20, align 4
  %.not.us.us = icmp eq i32 %21, 0
  br i1 %.not.us.us, label %_ZNK10open_spiel5maedn10MaednState9AllInGoalEi.exit.thread.us.us, label %._crit_edge

_ZNK10open_spiel5maedn10MaednState9AllInGoalEi.exit.thread.us.us: ; preds = %_ZNK10open_spiel5maedn10MaednState16PlayerToPositionEi.exit.i.us.us, %_ZNK10open_spiel5maedn10MaednState9AllInGoalEi.exit.us.us, %17, %14
  %indvars.iv.next17 = add nuw nsw i64 %indvars.iv16, 1
  %exitcond20.not = icmp eq i64 %indvars.iv.next17, 2
  br i1 %exitcond20.not, label %._crit_edge, label %_ZNK10open_spiel5maedn10MaednState16PlayerToPositionEi.exit.i.us.us, !llvm.loop !42

_ZNK10open_spiel5maedn10MaednState16PlayerToPositionEi.exit.i.us: ; preds = %.lr.ph.split.us, %_ZNK10open_spiel5maedn10MaednState9AllInGoalEi.exit.thread.us
  %.05.us = phi i32 [ %37, %_ZNK10open_spiel5maedn10MaednState9AllInGoalEi.exit.thread.us ], [ 0, %.lr.ph.split.us ]
  %22 = add nsw i32 %.05.us, -1
  %or.cond.i.i.us = icmp ult i32 %22, 2
  %23 = sub nuw nsw i32 3, %.05.us
  %spec.select = select i1 %or.cond.i.i.us, i32 %23, i32 %.05.us
  %24 = shl nsw i32 %spec.select, 2
  %25 = zext nneg i32 %24 to i64
  %26 = getelementptr i32, ptr %7, i64 %25
  %27 = getelementptr i8, ptr %26, i64 160
  %28 = load i32, ptr %27, align 4
  %.not.i.us = icmp eq i32 %28, 0
  br i1 %.not.i.us, label %_ZNK10open_spiel5maedn10MaednState9AllInGoalEi.exit.thread.us, label %29

29:                                               ; preds = %_ZNK10open_spiel5maedn10MaednState16PlayerToPositionEi.exit.i.us
  %30 = getelementptr i8, ptr %26, i64 164
  %31 = load i32, ptr %30, align 4
  %.not6.i.us = icmp eq i32 %31, 0
  br i1 %.not6.i.us, label %_ZNK10open_spiel5maedn10MaednState9AllInGoalEi.exit.thread.us, label %32

32:                                               ; preds = %29
  %33 = getelementptr i8, ptr %26, i64 168
  %34 = load i32, ptr %33, align 4
  %.not7.i.us = icmp eq i32 %34, 0
  br i1 %.not7.i.us, label %_ZNK10open_spiel5maedn10MaednState9AllInGoalEi.exit.thread.us, label %_ZNK10open_spiel5maedn10MaednState9AllInGoalEi.exit.us

_ZNK10open_spiel5maedn10MaednState9AllInGoalEi.exit.us: ; preds = %32
  %35 = getelementptr i8, ptr %26, i64 172
  %36 = load i32, ptr %35, align 4
  %.not.us = icmp eq i32 %36, 0
  br i1 %.not.us, label %_ZNK10open_spiel5maedn10MaednState9AllInGoalEi.exit.thread.us, label %._crit_edge

_ZNK10open_spiel5maedn10MaednState9AllInGoalEi.exit.thread.us: ; preds = %_ZNK10open_spiel5maedn10MaednState9AllInGoalEi.exit.us, %32, %29, %_ZNK10open_spiel5maedn10MaednState16PlayerToPositionEi.exit.i.us
  %37 = add nuw nsw i32 %.05.us, 1
  %exitcond21.not = icmp eq i32 %37, 2
  br i1 %exitcond21.not, label %._crit_edge, label %_ZNK10open_spiel5maedn10MaednState16PlayerToPositionEi.exit.i.us, !llvm.loop !42

_ZNK10open_spiel5maedn10MaednState16PlayerToPositionEi.exit.i: ; preds = %_ZNK10open_spiel5maedn10MaednState16PlayerToPositionEi.exit.i.preheader, %_ZNK10open_spiel5maedn10MaednState9AllInGoalEi.exit.thread
  %indvars.iv = phi i64 [ 0, %_ZNK10open_spiel5maedn10MaednState16PlayerToPositionEi.exit.i.preheader ], [ %indvars.iv.next, %_ZNK10open_spiel5maedn10MaednState9AllInGoalEi.exit.thread ]
  %.idx = shl i64 %indvars.iv, 4
  %38 = getelementptr i8, ptr %7, i64 %.idx
  %39 = getelementptr i8, ptr %38, i64 160
  %40 = load i32, ptr %39, align 4
  %.not.i = icmp eq i32 %40, 0
  br i1 %.not.i, label %_ZNK10open_spiel5maedn10MaednState9AllInGoalEi.exit.thread, label %41

41:                                               ; preds = %_ZNK10open_spiel5maedn10MaednState16PlayerToPositionEi.exit.i
  %42 = getelementptr i8, ptr %38, i64 164
  %43 = load i32, ptr %42, align 4
  %.not6.i = icmp eq i32 %43, 0
  br i1 %.not6.i, label %_ZNK10open_spiel5maedn10MaednState9AllInGoalEi.exit.thread, label %44

44:                                               ; preds = %41
  %45 = getelementptr i8, ptr %38, i64 168
  %46 = load i32, ptr %45, align 4
  %.not7.i = icmp eq i32 %46, 0
  br i1 %.not7.i, label %_ZNK10open_spiel5maedn10MaednState9AllInGoalEi.exit.thread, label %_ZNK10open_spiel5maedn10MaednState9AllInGoalEi.exit

_ZNK10open_spiel5maedn10MaednState9AllInGoalEi.exit: ; preds = %44
  %47 = getelementptr i8, ptr %38, i64 172
  %48 = load i32, ptr %47, align 4
  %.not = icmp eq i32 %48, 0
  br i1 %.not, label %_ZNK10open_spiel5maedn10MaednState9AllInGoalEi.exit.thread, label %._crit_edge

_ZNK10open_spiel5maedn10MaednState9AllInGoalEi.exit.thread: ; preds = %_ZNK10open_spiel5maedn10MaednState16PlayerToPositionEi.exit.i, %41, %44, %_ZNK10open_spiel5maedn10MaednState9AllInGoalEi.exit
  %indvars.iv.next = add nuw nsw i64 %indvars.iv, 1
  %exitcond.not = icmp eq i64 %indvars.iv.next, %wide.trip.count
  br i1 %exitcond.not, label %._crit_edge, label %_ZNK10open_spiel5maedn10MaednState16PlayerToPositionEi.exit.i, !llvm.loop !42

._crit_edge:                                      ; preds = %_ZNK10open_spiel5maedn10MaednState9AllInGoalEi.exit, %_ZNK10open_spiel5maedn10MaednState9AllInGoalEi.exit.thread, %_ZNK10open_spiel5maedn10MaednState9AllInGoalEi.exit.us.us, %_ZNK10open_spiel5maedn10MaednState9AllInGoalEi.exit.thread.us.us, %_ZNK10open_spiel5maedn10MaednState9AllInGoalEi.exit.us, %_ZNK10open_spiel5maedn10MaednState9AllInGoalEi.exit.thread.us, %1
  %.lcssa = phi i1 [ false, %1 ], [ false, %_ZNK10open_spiel5maedn10MaednState9AllInGoalEi.exit.thread.us ], [ true, %_ZNK10open_spiel5maedn10MaednState9AllInGoalEi.exit.us ], [ false, %_ZNK10open_spiel5maedn10MaednState9AllInGoalEi.exit.thread.us.us ], [ true, %_ZNK10open_spiel5maedn10MaednState9AllInGoalEi.exit.us.us ], [ false, %_ZNK10open_spiel5maedn10MaednState9AllInGoalEi.exit.thread ], [ true, %_ZNK10open_spiel5maedn10MaednState9AllInGoalEi.exit ]
  ret i1 %.lcssa
}